; Function Attrs: nounwind uwtable
define void @Str_MuxInputsCollect_rec(ptr noundef readonly captures(none) %0, ptr noundef %1, ptr noundef captures(none) %2) local_unnamed_addr #0 {
  %4 = load i64, ptr %1, align 4
  %5 = and i64 %4, 1073741824
  %.not22 = icmp eq i64 %5, 0
  br i1 %.not22, label %tailrecurse._crit_edge, label %.lr.ph

.lr.ph:                                           ; preds = %3
  %6 = getelementptr inbounds nuw i8, ptr %0, i64 40
  %7 = getelementptr i8, ptr %0, i64 32
  %8 = getelementptr inbounds nuw i8, ptr %2, i64 4
  %.phi.trans.insert.i14 = getelementptr inbounds nuw i8, ptr %2, i64 8
  br label %46

tailrecurse._crit_edge:                           ; preds = %Vec_IntPush.exit19, %3
  %.tr20.lcssa = phi ptr [ %1, %3 ], [ %94, %Vec_IntPush.exit19 ]
  %9 = getelementptr i8, ptr %0, i64 32
  %.val = load ptr, ptr %9, align 8, !tbaa !46
  %10 = getelementptr inbounds nuw i8, ptr %2, i64 4
  %11 = load i32, ptr %10, align 4, !tbaa !45
  %12 = load i32, ptr %2, align 8, !tbaa !47
  %13 = icmp eq i32 %11, %12
  br i1 %13, label %14, label %.Vec_IntGrow.exit10_crit_edge.i

.Vec_IntGrow.exit10_crit_edge.i:                  ; preds = %tailrecurse._crit_edge
  %.phi.trans.insert.i = getelementptr inbounds nuw i8, ptr %2, i64 8
  %.pre.i = load ptr, ptr %.phi.trans.insert.i, align 8, !tbaa !36
  br label %Vec_IntPush.exit

14:                                               ; preds = %tailrecurse._crit_edge
  %15 = icmp slt i32 %11, 16
  br i1 %15, label %16, label %24

16:                                               ; preds = %14
  %17 = getelementptr inbounds nuw i8, ptr %2, i64 8
  %18 = load ptr, ptr %17, align 8, !tbaa !36
  %.not9.i.i = icmp eq ptr %18, null
  br i1 %.not9.i.i, label %21, label %19

19:                                               ; preds = %16
  %20 = tail call dereferenceable_or_null(64) ptr @realloc(ptr noundef nonnull %18, i64 noundef 64) #29
  br label %Vec_IntGrow.exit.i

21:                                               ; preds = %16
  %22 = tail call noalias dereferenceable_or_null(64) ptr @malloc(i64 noundef 64) #28
  br label %Vec_IntGrow.exit.i

Vec_IntGrow.exit.i:                               ; preds = %21, %19
  %23 = phi ptr [ %20, %19 ], [ %22, %21 ]
  store ptr %23, ptr %17, align 8, !tbaa !36
  store i32 16, ptr %2, align 8, !tbaa !47
  br label %Vec_IntPush.exit

24:                                               ; preds = %14
  %25 = shl nuw nsw i32 %11, 1
  %26 = getelementptr inbounds nuw i8, ptr %2, i64 8
  %27 = load ptr, ptr %26, align 8, !tbaa !36
  %.not9.i9.i = icmp eq ptr %27, null
  %28 = zext nneg i32 %25 to i64
  %29 = shl nuw nsw i64 %28, 2
  br i1 %.not9.i9.i, label %32, label %30

30:                                               ; preds = %24
  %31 = tail call ptr @realloc(ptr noundef nonnull %27, i64 noundef %29) #29
  br label %34

32:                                               ; preds = %24
  %33 = tail call noalias ptr @malloc(i64 noundef %29) #28
  br label %34

34:                                               ; preds = %32, %30
  %35 = phi ptr [ %31, %30 ], [ %33, %32 ]
  store ptr %35, ptr %26, align 8, !tbaa !36
  store i32 %25, ptr %2, align 8, !tbaa !47
  br label %Vec_IntPush.exit

Vec_IntPush.exit:                                 ; preds = %.Vec_IntGrow.exit10_crit_edge.i, %Vec_IntGrow.exit.i, %34
  %36 = phi ptr [ %.pre.i, %.Vec_IntGrow.exit10_crit_edge.i ], [ %35, %34 ], [ %23, %Vec_IntGrow.exit.i ]
  %37 = ptrtoint ptr %.tr20.lcssa to i64
  %38 = ptrtoint ptr %.val to i64
  %39 = sub i64 %37, %38
  %40 = sdiv exact i64 %39, 12
  %41 = trunc i64 %40 to i32
  %42 = load i32, ptr %10, align 4, !tbaa !45
  %43 = add nsw i32 %42, 1
  store i32 %43, ptr %10, align 4, !tbaa !45
  %44 = sext i32 %42 to i64
  %45 = getelementptr inbounds i32, ptr %36, i64 %44
  store i32 %41, ptr %45, align 4, !tbaa !38
  ret void

46:                                               ; preds = %.lr.ph, %Vec_IntPush.exit19
  %.tr2023 = phi ptr [ %1, %.lr.ph ], [ %94, %Vec_IntPush.exit19 ]
  %47 = load ptr, ptr %6, align 8, !tbaa !53
  %.not.i = icmp eq ptr %47, null
  br i1 %.not.i, label %Gia_ObjFaninId2p.exit, label %48

48:                                               ; preds = %46
  %.val8.i = load ptr, ptr %7, align 8, !tbaa !46
  %49 = ptrtoint ptr %.tr2023 to i64
  %50 = ptrtoint ptr %.val8.i to i64
  %51 = sub i64 %49, %50
  %52 = sdiv exact i64 %51, 12
  %sext.i = shl i64 %52, 32
  %53 = ashr exact i64 %sext.i, 30
  %54 = getelementptr inbounds i8, ptr %47, i64 %53
  %55 = load i32, ptr %54, align 4, !tbaa !38
  %.not7.i = icmp eq i32 %55, 0
  %56 = ashr i32 %55, 1
  %spec.select.i = select i1 %.not7.i, i32 -1, i32 %56
  br label %Gia_ObjFaninId2p.exit

Gia_ObjFaninId2p.exit:                            ; preds = %46, %48
  %57 = phi i32 [ -1, %46 ], [ %spec.select.i, %48 ]
  %58 = load i32, ptr %8, align 4, !tbaa !45
  %59 = load i32, ptr %2, align 8, !tbaa !47
  %60 = icmp eq i32 %58, %59
  br i1 %60, label %61, label %.Vec_IntGrow.exit10_crit_edge.i13

.Vec_IntGrow.exit10_crit_edge.i13:                ; preds = %Gia_ObjFaninId2p.exit
  %.pre.i15 = load ptr, ptr %.phi.trans.insert.i14, align 8, !tbaa !36
  br label %Vec_IntPush.exit19

61:                                               ; preds = %Gia_ObjFaninId2p.exit
  %62 = icmp slt i32 %58, 16
  br i1 %62, label %63, label %70

63:                                               ; preds = %61
  %64 = load ptr, ptr %.phi.trans.insert.i14, align 8, !tbaa !36
  %.not9.i.i17 = icmp eq ptr %64, null
  br i1 %.not9.i.i17, label %67, label %65

65:                                               ; preds = %63
  %66 = tail call dereferenceable_or_null(64) ptr @realloc(ptr noundef nonnull %64, i64 noundef 64) #29
  br label %Vec_IntGrow.exit.i18

67:                                               ; preds = %63
  %68 = tail call noalias dereferenceable_or_null(64) ptr @malloc(i64 noundef 64) #28
  br label %Vec_IntGrow.exit.i18

Vec_IntGrow.exit.i18:                             ; preds = %67, %65
  %69 = phi ptr [ %66, %65 ], [ %68, %67 ]
  store ptr %69, ptr %.phi.trans.insert.i14, align 8, !tbaa !36
  store i32 16, ptr %2, align 8, !tbaa !47
  br label %Vec_IntPush.exit19

70:                                               ; preds = %61
  %71 = shl nuw nsw i32 %58, 1
  %72 = load ptr, ptr %.phi.trans.insert.i14, align 8, !tbaa !36
  %.not9.i9.i16 = icmp eq ptr %72, null
  %73 = zext nneg i32 %71 to i64
  %74 = shl nuw nsw i64 %73, 2
  br i1 %.not9.i9.i16, label %77, label %75

75:                                               ; preds = %70
  %76 = tail call ptr @realloc(ptr noundef nonnull %72, i64 noundef %74) #29
  br label %79

77:                                               ; preds = %70
  %78 = tail call noalias ptr @malloc(i64 noundef %74) #28
  br label %79

79:                                               ; preds = %77, %75
  %80 = phi ptr [ %76, %75 ], [ %78, %77 ]
  store ptr %80, ptr %.phi.trans.insert.i14, align 8, !tbaa !36
  store i32 %71, ptr %2, align 8, !tbaa !47
  br label %Vec_IntPush.exit19

Vec_IntPush.exit19:                               ; preds = %.Vec_IntGrow.exit10_crit_edge.i13, %Vec_IntGrow.exit.i18, %79
  %81 = phi ptr [ %.pre.i15, %.Vec_IntGrow.exit10_crit_edge.i13 ], [ %80, %79 ], [ %69, %Vec_IntGrow.exit.i18 ]
  %82 = load i32, ptr %8, align 4, !tbaa !45
  %83 = add nsw i32 %82, 1
  store i32 %83, ptr %8, align 4, !tbaa !45
  %84 = sext i32 %82 to i64
  %85 = getelementptr inbounds i32, ptr %81, i64 %84
  store i32 %57, ptr %85, align 4, !tbaa !38
  %86 = load i64, ptr %.tr2023, align 4
  %87 = and i64 %86, 536870911
  %88 = sub nsw i64 0, %87
  %89 = getelementptr inbounds %struct.Gia_Obj_t_, ptr %.tr2023, i64 %88
  tail call void @Str_MuxInputsCollect_rec(ptr noundef nonnull %0, ptr noundef nonnull %89, ptr noundef nonnull %2)
  %90 = load i64, ptr %.tr2023, align 4
  %91 = lshr i64 %90, 32
  %92 = and i64 %91, 536870911
  %93 = sub nsw i64 0, %92
  %94 = getelementptr inbounds %struct.Gia_Obj_t_, ptr %.tr2023, i64 %93
  %95 = load i64, ptr %94, align 4
  %96 = and i64 %95, 1073741824
  %.not = icmp eq i64 %96, 0
  br i1 %.not, label %tailrecurse._crit_edge, label %46
}